target datalayout = "e-m:e-p270:32:32-p271:32:32-p272:64:64-i64:64-i128:128-f80:128-n8:16:32:64-S128"
target triple = "x86_64-pc-linux-gnu"

%struct.ggml_backend_registry = type { %"class.std::vector", %"class.std::vector.0" }
%"class.std::vector" = type { %"struct.std::_Vector_base" }
%"struct.std::_Vector_base" = type { %"struct.std::_Vector_base<ggml_backend_reg_entry, std::allocator<ggml_backend_reg_entry>>::_Vector_impl" }
%"struct.std::_Vector_base<ggml_backend_reg_entry, std::allocator<ggml_backend_reg_entry>>::_Vector_impl" = type { %"struct.std::_Vector_base<ggml_backend_reg_entry, std::allocator<ggml_backend_reg_entry>>::_Vector_impl_data" }
%"struct.std::_Vector_base<ggml_backend_reg_entry, std::allocator<ggml_backend_reg_entry>>::_Vector_impl_data" = type { ptr, ptr, ptr }
%"class.std::vector.0" = type { %"struct.std::_Vector_base.1" }
%"struct.std::_Vector_base.1" = type { %"struct.std::_Vector_base<ggml_backend_device *, std::allocator<ggml_backend_device *>>::_Vector_impl" }
%"struct.std::_Vector_base<ggml_backend_device *, std::allocator<ggml_backend_device *>>::_Vector_impl" = type { %"struct.std::_Vector_base<ggml_backend_device *, std::allocator<ggml_backend_device *>>::_Vector_impl_data" }
%"struct.std::_Vector_base<ggml_backend_device *, std::allocator<ggml_backend_device *>>::_Vector_impl_data" = type { ptr, ptr, ptr }

@_ZZL7get_regvE3reg = internal global %struct.ggml_backend_registry zeroinitializer, align 8
@_ZGVZL7get_regvE3reg = internal global i64 0, align 8
@__dso_handle = external hidden global i8

; Function Attrs: mustprogress uwtable
define internal noundef nonnull align 8 dereferenceable(48) ptr @_ZL7get_regv() #0 personality ptr @__gxx_personality_v0 {
  %1 = alloca ptr, align 8
  %2 = alloca i32, align 4
  %3 = load atomic i8, ptr @_ZGVZL7get_regvE3reg acquire, align 8
  %4 = icmp eq i8 %3, 0
  br i1 %4, label %5, label %11, !prof !8

5:                                                ; preds = %0
  %6 = call i32 @__cxa_guard_acquire(ptr @_ZGVZL7get_regvE3reg) #6
  %7 = icmp ne i32 %6, 0
  br i1 %7, label %8, label %11

8:                                                ; preds = %5
  invoke void @_ZN21ggml_backend_registryC2Ev(ptr noundef nonnull align 8 dereferenceable(48) @_ZZL7get_regvE3reg)
          to label %9 unwind label %12

9:                                                ; preds = %8
  %10 = call i32 @__cxa_atexit(ptr @_ZN21ggml_backend_registryD2Ev, ptr @_ZZL7get_regvE3reg, ptr @__dso_handle) #6
  call void @__cxa_guard_release(ptr @_ZGVZL7get_regvE3reg) #6
  br label %11

11:                                               ; preds = %9, %5, %0
  ret ptr @_ZZL7get_regvE3reg

12:                                               ; preds = %8
  %13 = landingpad { ptr, i32 }
          cleanup
  %14 = extractvalue { ptr, i32 } %13, 0
  store ptr %14, ptr %1, align 8
  %15 = extractvalue { ptr, i32 } %13, 1
  store i32 %15, ptr %2, align 4
  call void @__cxa_guard_abort(ptr @_ZGVZL7get_regvE3reg) #6
  br label %16

16:                                               ; preds = %12
  %17 = load ptr, ptr %1, align 8
  %18 = load i32, ptr %2, align 4
  %19 = insertvalue { ptr, i32 } poison, ptr %17, 0
  %20 = insertvalue { ptr, i32 } %19, i32 %18, 1
  resume { ptr, i32 } %20
}

; Function Attrs: mustprogress uwtable
define void @ggml_backend_unload(ptr noundef %0) #0 {
  %2 = alloca ptr, align 8
  store ptr %0, ptr %2, align 8, !tbaa !3
  %3 = call noundef nonnull align 8 dereferenceable(48) ptr @_ZL7get_regv()
  %4 = load ptr, ptr %2, align 8, !tbaa !3
  call void @_ZN21ggml_backend_registry14unload_backendEP16ggml_backend_regb(ptr noundef nonnull align 8 dereferenceable(48) %3, ptr noundef %4, i1 noundef zeroext true)
  ret void
}