; Function Attrs: mustprogress uwtable
define void @ggml_backend_unload(ptr noundef %0) local_unnamed_addr #0 personality ptr @__gxx_personality_v0 {
  %2 = load atomic i8, ptr @_ZGVZL7get_regvE3reg acquire, align 8
  %3 = icmp eq i8 %2, 0
  br i1 %3, label %4, label %_ZL7get_regv.exit, !prof !3

4:                                                ; preds = %1
  %5 = tail call i32 @__cxa_guard_acquire(ptr nonnull @_ZGVZL7get_regvE3reg) #26
  %.not.i = icmp eq i32 %5, 0
  br i1 %.not.i, label %_ZL7get_regv.exit, label %6

6:                                                ; preds = %4
  invoke void @_ZN21ggml_backend_registryC2Ev(ptr noundef nonnull align 8 dereferenceable(48) @_ZZL7get_regvE3reg)
          to label %7 unwind label %9

7:                                                ; preds = %6
  %8 = tail call i32 @__cxa_atexit(ptr nonnull @_ZN21ggml_backend_registryD2Ev, ptr nonnull @_ZZL7get_regvE3reg, ptr nonnull @__dso_handle) #26
  tail call void @__cxa_guard_release(ptr nonnull @_ZGVZL7get_regvE3reg) #26
  br label %_ZL7get_regv.exit

9:                                                ; preds = %6
  %10 = landingpad { ptr, i32 }
          cleanup
  tail call void @__cxa_guard_abort(ptr nonnull @_ZGVZL7get_regvE3reg) #26
  resume { ptr, i32 } %10

_ZL7get_regv.exit:                                ; preds = %1, %4, %7
  tail call void @_ZN21ggml_backend_registry14unload_backendEP16ggml_backend_regb(ptr noundef nonnull align 8 dereferenceable(48) @_ZZL7get_regvE3reg, ptr noundef %0, i1 noundef zeroext true)
  ret void
}